target datalayout = "e-m:e-p270:32:32-p271:32:32-p272:64:64-i64:64-i128:128-f80:128-n8:16:32:64-S128"
target triple = "x86_64-pc-linux-gnu"

%struct.lua_State = type { %struct.GCRef, i8, i8, i8, i8, %struct.MRef, %struct.GCRef, ptr, ptr, %struct.MRef, %struct.MRef, %struct.GCRef, %struct.GCRef, ptr, i32 }
%struct.MRef = type { i64 }
%struct.GCRef = type { i64 }
%union.TValue = type { i64 }

@.str.2 = private unnamed_addr constant [24 x i8] c"store to dead GC object\00", align 1

; Function Attrs: alwaysinline nounwind uwtable
define internal void @checklivetv(ptr noundef %0, ptr noundef %1, ptr noundef %2) #3 {
  %4 = alloca ptr, align 8
  %5 = alloca ptr, align 8
  %6 = alloca ptr, align 8
  store ptr %0, ptr %4, align 8, !tbaa !4
  store ptr %1, ptr %5, align 8, !tbaa !48
  store ptr %2, ptr %6, align 8, !tbaa !9
  ret void
}

; Function Attrs: alwaysinline nounwind uwtable
define internal void @setgcVraw(ptr noundef %0, ptr noundef %1, i32 noundef %2) #3 {
  %4 = alloca ptr, align 8
  %5 = alloca ptr, align 8
  %6 = alloca i32, align 4
  store ptr %0, ptr %4, align 8, !tbaa !48
  store ptr %1, ptr %5, align 8, !tbaa !35
  store i32 %2, ptr %6, align 4, !tbaa !24
  %7 = load ptr, ptr %5, align 8, !tbaa !35
  %8 = ptrtoint ptr %7 to i64
  %9 = load i32, ptr %6, align 4, !tbaa !24
  %10 = zext i32 %9 to i64
  %11 = shl i64 %10, 47
  %12 = or i64 %8, %11
  %13 = load ptr, ptr %4, align 8, !tbaa !48
  %14 = getelementptr inbounds nuw %struct.GCRef, ptr %13, i32 0, i32 0
  store i64 %12, ptr %14, align 8, !tbaa !23
  ret void
}

; Function Attrs: alwaysinline nounwind uwtable
define internal void @setgcV(ptr noundef %0, ptr noundef %1, ptr noundef %2, i32 noundef %3) #3 {
  %5 = alloca ptr, align 8
  %6 = alloca ptr, align 8
  %7 = alloca ptr, align 8
  %8 = alloca i32, align 4
  store ptr %0, ptr %5, align 8, !tbaa !4
  store ptr %1, ptr %6, align 8, !tbaa !48
  store ptr %2, ptr %7, align 8, !tbaa !35
  store i32 %3, ptr %8, align 4, !tbaa !24
  %9 = load ptr, ptr %6, align 8, !tbaa !48
  %10 = load ptr, ptr %7, align 8, !tbaa !35
  %11 = load i32, ptr %8, align 4, !tbaa !24
  call void @setgcVraw(ptr noundef %9, ptr noundef %10, i32 noundef %11)
  %12 = load ptr, ptr %5, align 8, !tbaa !4
  %13 = load ptr, ptr %6, align 8, !tbaa !48
  call void @checklivetv(ptr noundef %12, ptr noundef %13, ptr noundef @.str.2)
  ret void
}

; Function Attrs: alwaysinline nounwind uwtable
define internal void @setstrV(ptr noundef %0, ptr noundef %1, ptr noundef %2) #3 {
  %4 = alloca ptr, align 8
  %5 = alloca ptr, align 8
  %6 = alloca ptr, align 8
  store ptr %0, ptr %4, align 8, !tbaa !4
  store ptr %1, ptr %5, align 8, !tbaa !48
  store ptr %2, ptr %6, align 8, !tbaa !49
  %7 = load ptr, ptr %4, align 8, !tbaa !4
  %8 = load ptr, ptr %5, align 8, !tbaa !48
  %9 = load ptr, ptr %6, align 8, !tbaa !49
  call void @setgcV(ptr noundef %7, ptr noundef %8, ptr noundef %9, i32 noundef -5)
  ret void
}

; Function Attrs: nounwind uwtable
define hidden ptr @lj_lib_checkstr(ptr noundef %0, i32 noundef %1) #0 {
  %3 = alloca ptr, align 8
  %4 = alloca ptr, align 8
  %5 = alloca i32, align 4
  %6 = alloca ptr, align 8
  %7 = alloca i32, align 4
  %8 = alloca ptr, align 8
  store ptr %0, ptr %4, align 8, !tbaa !4
  store i32 %1, ptr %5, align 4, !tbaa !24
  call void @llvm.lifetime.start.p0(i64 8, ptr %6) #9
  %9 = load ptr, ptr %4, align 8, !tbaa !4
  %10 = getelementptr inbounds nuw %struct.lua_State, ptr %9, i32 0, i32 7
  %11 = load ptr, ptr %10, align 8, !tbaa !29
  %12 = load i32, ptr %5, align 4, !tbaa !24
  %13 = sext i32 %12 to i64
  %14 = getelementptr inbounds %union.TValue, ptr %11, i64 %13
  %15 = getelementptr inbounds %union.TValue, ptr %14, i64 -1
  store ptr %15, ptr %6, align 8, !tbaa !48
  %16 = load ptr, ptr %6, align 8, !tbaa !48
  %17 = load ptr, ptr %4, align 8, !tbaa !4
  %18 = getelementptr inbounds nuw %struct.lua_State, ptr %17, i32 0, i32 8
  %19 = load ptr, ptr %18, align 8, !tbaa !28
  %20 = icmp ult ptr %16, %19
  br i1 %20, label %21, label %55

21:                                               ; preds = %2
  %22 = load ptr, ptr %6, align 8, !tbaa !48
  %23 = load i64, ptr %22, align 8, !tbaa !23
  %24 = ashr i64 %23, 47
  %25 = trunc i64 %24 to i32
  %26 = icmp eq i32 %25, -5
  %27 = xor i1 %26, true
  %28 = xor i1 %27, true
  %29 = zext i1 %28 to i32
  %30 = sext i32 %29 to i64
  %31 = call i64 @llvm.expect.i64(i64 %30, i64 1)
  %32 = icmp ne i64 %31, 0
  br i1 %32, label %33, label %39

33:                                               ; preds = %21
  %34 = load ptr, ptr %6, align 8, !tbaa !48
  %35 = getelementptr inbounds nuw %struct.GCRef, ptr %34, i32 0, i32 0
  %36 = load i64, ptr %35, align 8, !tbaa !23
  %37 = and i64 %36, 140737488355327
  %38 = inttoptr i64 %37 to ptr
  store ptr %38, ptr %3, align 8
  store i32 1, ptr %7, align 4
  br label %58

39:                                               ; preds = %21
  %40 = load ptr, ptr %6, align 8, !tbaa !48
  %41 = load i64, ptr %40, align 8, !tbaa !23
  %42 = ashr i64 %41, 47
  %43 = trunc i64 %42 to i32
  %44 = icmp ule i32 %43, -14
  br i1 %44, label %45, label %53

45:                                               ; preds = %39
  call void @llvm.lifetime.start.p0(i64 8, ptr %8) #9
  %46 = load ptr, ptr %4, align 8, !tbaa !4
  %47 = load ptr, ptr %6, align 8, !tbaa !48
  %48 = call ptr @lj_strfmt_number(ptr noundef %46, ptr noundef %47)
  store ptr %48, ptr %8, align 8, !tbaa !49
  %49 = load ptr, ptr %4, align 8, !tbaa !4
  %50 = load ptr, ptr %6, align 8, !tbaa !48
  %51 = load ptr, ptr %8, align 8, !tbaa !49
  call void @setstrV(ptr noundef %49, ptr noundef %50, ptr noundef %51)
  %52 = load ptr, ptr %8, align 8, !tbaa !49
  store ptr %52, ptr %3, align 8
  store i32 1, ptr %7, align 4
  call void @llvm.lifetime.end.p0(i64 8, ptr %8) #9
  br label %58

53:                                               ; preds = %39
  br label %54

54:                                               ; preds = %53
  br label %55

55:                                               ; preds = %54, %2
  %56 = load ptr, ptr %4, align 8, !tbaa !4
  %57 = load i32, ptr %5, align 4, !tbaa !24
  call void @lj_err_argt(ptr noundef %56, i32 noundef %57, i32 noundef 4) #10
  unreachable

58:                                               ; preds = %45, %33
  call void @llvm.lifetime.end.p0(i64 8, ptr %6) #9
  %59 = load ptr, ptr %3, align 8
  ret ptr %59
}

; Function Attrs: nounwind uwtable
define hidden ptr @lj_lib_optstr(ptr noundef %0, i32 noundef %1) #0 {
  %3 = alloca ptr, align 8
  %4 = alloca i32, align 4
  %5 = alloca ptr, align 8
  store ptr %0, ptr %3, align 8, !tbaa !4
  store i32 %1, ptr %4, align 4, !tbaa !24
  call void @llvm.lifetime.start.p0(i64 8, ptr %5) #9
  %6 = load ptr, ptr %3, align 8, !tbaa !4
  %7 = getelementptr inbounds nuw %struct.lua_State, ptr %6, i32 0, i32 7
  %8 = load ptr, ptr %7, align 8, !tbaa !29
  %9 = load i32, ptr %4, align 4, !tbaa !24
  %10 = sext i32 %9 to i64
  %11 = getelementptr inbounds %union.TValue, ptr %8, i64 %10
  %12 = getelementptr inbounds %union.TValue, ptr %11, i64 -1
  store ptr %12, ptr %5, align 8, !tbaa !48
  %13 = load ptr, ptr %5, align 8, !tbaa !48
  %14 = load ptr, ptr %3, align 8, !tbaa !4
  %15 = getelementptr inbounds nuw %struct.lua_State, ptr %14, i32 0, i32 8
  %16 = load ptr, ptr %15, align 8, !tbaa !28
  %17 = icmp ult ptr %13, %16
  br i1 %17, label %18, label %26

18:                                               ; preds = %2
  %19 = load ptr, ptr %5, align 8, !tbaa !48
  %20 = load i64, ptr %19, align 8, !tbaa !23
  %21 = icmp eq i64 %20, -1
  br i1 %21, label %26, label %22

22:                                               ; preds = %18
  %23 = load ptr, ptr %3, align 8, !tbaa !4
  %24 = load i32, ptr %4, align 4, !tbaa !24
  %25 = call ptr @lj_lib_checkstr(ptr noundef %23, i32 noundef %24)
  br label %27

26:                                               ; preds = %18, %2
  br label %27

27:                                               ; preds = %26, %22
  %28 = phi ptr [ %25, %22 ], [ null, %26 ]
  call void @llvm.lifetime.end.p0(i64 8, ptr %5) #9
  ret ptr %28
}