; Function Attrs: nounwind uwtable
define hidden ptr @lj_lib_optstr(ptr noundef %0, i32 noundef %1) local_unnamed_addr #0 {
  %3 = getelementptr inbounds nuw i8, ptr %0, i64 32
  %4 = load ptr, ptr %3, align 8, !tbaa !17
  %5 = sext i32 %1 to i64
  %6 = getelementptr inbounds %union.TValue, ptr %4, i64 %5
  %7 = getelementptr inbounds i8, ptr %6, i64 -8
  %8 = getelementptr inbounds nuw i8, ptr %0, i64 40
  %9 = load ptr, ptr %8, align 8, !tbaa !16
  %10 = icmp ult ptr %7, %9
  br i1 %10, label %11, label %lj_lib_checkstr.exit

11:                                               ; preds = %2
  %12 = load i64, ptr %7, align 8, !tbaa !14
  %13 = icmp eq i64 %12, -1
  br i1 %13, label %lj_lib_checkstr.exit, label %14

14:                                               ; preds = %11
  %15 = ashr i64 %12, 47
  %16 = icmp eq i64 %15, -5
  br i1 %16, label %17, label %20, !prof !18

17:                                               ; preds = %14
  %18 = and i64 %12, 140737488355327
  %19 = inttoptr i64 %18 to ptr
  br label %lj_lib_checkstr.exit

20:                                               ; preds = %14
  %21 = icmp ult i64 %15, -13
  br i1 %21, label %22, label %26

22:                                               ; preds = %20
  %23 = tail call ptr @lj_strfmt_number(ptr noundef nonnull %0, ptr noundef nonnull %7) #8
  %24 = ptrtoint ptr %23 to i64
  %25 = or i64 %24, -703687441776640
  store i64 %25, ptr %7, align 8, !tbaa !14
  br label %lj_lib_checkstr.exit

26:                                               ; preds = %20
  tail call void @lj_err_argt(ptr noundef nonnull %0, i32 noundef %1, i32 noundef 4) #9
  unreachable

lj_lib_checkstr.exit:                             ; preds = %22, %17, %2, %11
  %27 = phi ptr [ null, %11 ], [ null, %2 ], [ %19, %17 ], [ %23, %22 ]
  ret ptr %27
}